; Function Attrs: mustprogress nounwind uwtable
define dso_local void @_ZN4llvm18BinaryStreamReader26readLongestContiguousChunkERNS_8ArrayRefIhEE(ptr dead_on_unwind noalias writable sret(%"class.llvm::Error") align 8 %0, ptr noundef nonnull align 8 dereferenceable(64) %1, ptr noundef nonnull align 8 dereferenceable(16) %2) local_unnamed_addr #1 align 2 {
_ZN4llvm5ErrorD2Ev.exit:
  %3 = getelementptr inbounds nuw i8, ptr %1, i64 8
  %4 = getelementptr inbounds nuw i8, ptr %1, i64 56
  %5 = load i64, ptr %4, align 8
  tail call void @_ZNK4llvm15BinaryStreamRef26readLongestContiguousChunkEmRNS_8ArrayRefIhEE(ptr dead_on_unwind writable sret(%"class.llvm::Error") align 8 %0, ptr noundef nonnull align 8 dereferenceable(48) %3, i64 noundef %5, ptr noundef nonnull align 8 dereferenceable(16) %2) #14
  %6 = load ptr, ptr %0, align 8
  %.not = icmp eq ptr %6, null
  br i1 %.not, label %_ZN4llvm12ErrorSuccessD2Ev.exit, label %11

_ZN4llvm12ErrorSuccessD2Ev.exit:                  ; preds = %_ZN4llvm5ErrorD2Ev.exit
  %7 = getelementptr inbounds nuw i8, ptr %2, i64 8
  %8 = load i64, ptr %7, align 8
  %9 = load i64, ptr %4, align 8
  %10 = add i64 %9, %8
  store i64 %10, ptr %4, align 8
  br label %11

11:                                               ; preds = %_ZN4llvm5ErrorD2Ev.exit, %_ZN4llvm12ErrorSuccessD2Ev.exit
  ret void
}